; Function Attrs: nounwind uwtable
define ptr @l_System_Uri_UriEscape_uriEscapeAsciiChar_uInt8ToHex(i8 noundef zeroext %0) local_unnamed_addr #0 {
lean_dec.exit15:
  %1 = lshr i8 %0, 3
  %2 = or i8 %1, 1
  %3 = zext nneg i8 %2 to i64
  %4 = inttoptr i64 %3 to ptr
  %5 = tail call ptr @l_hexDigitRepr(ptr noundef nonnull %4) #3
  %6 = shl i8 %0, 1
  %7 = and i8 %6, 30
  %8 = or disjoint i8 %7, 1
  %9 = zext nneg i8 %8 to i64
  %10 = inttoptr i64 %9 to ptr
  %11 = tail call ptr @l_hexDigitRepr(ptr noundef nonnull %10) #3
  %12 = tail call ptr @lean_string_append(ptr noundef %5, ptr noundef %11) #3
  %13 = ptrtoint ptr %11 to i64
  %14 = and i64 %13, 1
  %.not = icmp eq i64 %14, 0
  br i1 %.not, label %15, label %lean_dec.exit

15:                                               ; preds = %lean_dec.exit15
  %16 = load i32, ptr %11, align 4, !tbaa !4
  %17 = icmp sgt i32 %16, 1
  br i1 %17, label %18, label %20, !prof !11

18:                                               ; preds = %15
  %19 = add nsw i32 %16, -1
  store i32 %19, ptr %11, align 4, !tbaa !4
  br label %lean_dec.exit

20:                                               ; preds = %15
  %.not.i19 = icmp eq i32 %16, 0
  br i1 %.not.i19, label %lean_dec.exit, label %21

21:                                               ; preds = %20
  tail call void @lean_dec_ref_cold(ptr noundef nonnull %11) #3
  br label %lean_dec.exit

lean_dec.exit:                                    ; preds = %21, %20, %18, %lean_dec.exit15
  %22 = tail call ptr @l_String_mapAux___at_String_toUpper___spec__1(ptr noundef nonnull inttoptr (i64 1 to ptr), ptr noundef %12) #3
  ret ptr %22
}